; Function Attrs: nounwind uwtable
define internal fastcc range(i32 -2147483648, 2) i32 @traverse_string(ptr noundef %0, i32 noundef %1, i32 noundef %2, ptr noundef readonly captures(address_is_null) %3, ptr noundef nonnull %4) unnamed_addr #0 {
  %6 = alloca i64, align 8
  call void @llvm.lifetime.start.p0(i64 8, ptr nonnull %6) #8
  %.not34 = icmp eq i32 %1, 0
  br i1 %.not34, label %._crit_edge, label %.lr.ph

.lr.ph:                                           ; preds = %5
  %.not33 = icmp eq ptr %3, null
  switch i32 %2, label %.lr.ph.split [
    i32 4097, label %.lr.ph.split.us
    i32 4098, label %.lr.ph.split.us42
    i32 4100, label %.lr.ph.split.us52
  ]

.lr.ph.split.us:                                  ; preds = %.lr.ph
  br i1 %.not33, label %._crit_edge, label %.lr.ph.split.us.split

.lr.ph.split.us.split:                            ; preds = %.lr.ph.split.us, %11
  %.02636.us = phi ptr [ %13, %11 ], [ %0, %.lr.ph.split.us ]
  %.02735.us = phi i32 [ %12, %11 ], [ %1, %.lr.ph.split.us ]
  %7 = load i8, ptr %.02636.us, align 1, !tbaa !23
  %8 = zext i8 %7 to i64
  %9 = tail call i32 %3(i64 noundef %8, ptr noundef nonnull %4) #8
  %10 = icmp slt i32 %9, 1
  br i1 %10, label %._crit_edge, label %11

11:                                               ; preds = %.lr.ph.split.us.split
  %12 = add nsw i32 %.02735.us, -1
  %13 = getelementptr inbounds nuw i8, ptr %.02636.us, i64 1
  %.not.us = icmp eq i32 %12, 0
  br i1 %.not.us, label %._crit_edge, label %.lr.ph.split.us.split, !llvm.loop !12

.lr.ph.split.us42:                                ; preds = %.lr.ph
  br i1 %.not33, label %._crit_edge, label %.lr.ph.split.us42.split

.lr.ph.split.us42.split:                          ; preds = %.lr.ph.split.us42, %23
  %.02636.us43 = phi ptr [ %25, %23 ], [ %0, %.lr.ph.split.us42 ]
  %.02735.us44 = phi i32 [ %24, %23 ], [ %1, %.lr.ph.split.us42 ]
  %14 = getelementptr inbounds nuw i8, ptr %.02636.us43, i64 1
  %15 = load i8, ptr %.02636.us43, align 1, !tbaa !23
  %16 = zext i8 %15 to i64
  %17 = shl nuw nsw i64 %16, 8
  %18 = load i8, ptr %14, align 1, !tbaa !23
  %19 = zext i8 %18 to i64
  %20 = or disjoint i64 %17, %19
  %21 = tail call i32 %3(i64 noundef %20, ptr noundef nonnull %4) #8
  %22 = icmp slt i32 %21, 1
  br i1 %22, label %._crit_edge, label %23

23:                                               ; preds = %.lr.ph.split.us42.split
  %24 = add nsw i32 %.02735.us44, -2
  %25 = getelementptr inbounds nuw i8, ptr %.02636.us43, i64 2
  %.not.us47 = icmp eq i32 %24, 0
  br i1 %.not.us47, label %._crit_edge, label %.lr.ph.split.us42.split, !llvm.loop !12

.lr.ph.split.us52:                                ; preds = %.lr.ph, %48
  %.02636.us53 = phi ptr [ %26, %48 ], [ %0, %.lr.ph ]
  %.02735.us54 = phi i32 [ %27, %48 ], [ %1, %.lr.ph ]
  %26 = getelementptr inbounds nuw i8, ptr %.02636.us53, i64 4
  %27 = add nsw i32 %.02735.us54, -4
  br i1 %.not33, label %48, label %28

28:                                               ; preds = %.lr.ph.split.us52
  %29 = getelementptr inbounds nuw i8, ptr %.02636.us53, i64 2
  %30 = load i8, ptr %29, align 1, !tbaa !23
  %31 = zext i8 %30 to i64
  %32 = shl nuw nsw i64 %31, 8
  %33 = getelementptr inbounds nuw i8, ptr %.02636.us53, i64 1
  %34 = load i8, ptr %33, align 1, !tbaa !23
  %35 = zext i8 %34 to i64
  %36 = shl nuw nsw i64 %35, 16
  %37 = load i8, ptr %.02636.us53, align 1, !tbaa !23
  %38 = zext i8 %37 to i64
  %39 = shl nuw nsw i64 %38, 24
  %40 = or disjoint i64 %36, %39
  %41 = or disjoint i64 %32, %40
  %42 = getelementptr inbounds nuw i8, ptr %.02636.us53, i64 3
  %43 = load i8, ptr %42, align 1, !tbaa !23
  %44 = zext i8 %43 to i64
  %45 = or disjoint i64 %41, %44
  %46 = tail call i32 %3(i64 noundef %45, ptr noundef nonnull %4) #8
  %47 = icmp slt i32 %46, 1
  br i1 %47, label %._crit_edge, label %48

48:                                               ; preds = %28, %.lr.ph.split.us52
  %.not.us57 = icmp eq i32 %27, 0
  br i1 %.not.us57, label %._crit_edge, label %.lr.ph.split.us52, !llvm.loop !12

.lr.ph.split:                                     ; preds = %.lr.ph
  br i1 %.not33, label %.lr.ph.split.split.us, label %.lr.ph.split.split

.lr.ph.split.split.us:                            ; preds = %.lr.ph.split, %51
  %.02636.us62 = phi ptr [ %54, %51 ], [ %0, %.lr.ph.split ]
  %.02735.us63 = phi i32 [ %52, %51 ], [ %1, %.lr.ph.split ]
  %49 = call i32 @UTF8_getc(ptr noundef %.02636.us62, i32 noundef %.02735.us63, ptr noundef nonnull %6) #8
  %50 = icmp slt i32 %49, 0
  br i1 %50, label %._crit_edge, label %51

51:                                               ; preds = %.lr.ph.split.split.us
  %52 = sub nsw i32 %.02735.us63, %49
  %53 = zext nneg i32 %49 to i64
  %54 = getelementptr inbounds nuw i8, ptr %.02636.us62, i64 %53
  %.not.us64 = icmp eq i32 %52, 0
  br i1 %.not.us64, label %._crit_edge, label %.lr.ph.split.split.us, !llvm.loop !12

.lr.ph.split.split:                               ; preds = %.lr.ph.split, %61
  %.02636 = phi ptr [ %63, %61 ], [ %0, %.lr.ph.split ]
  %.02735 = phi i32 [ %64, %61 ], [ %1, %.lr.ph.split ]
  %55 = call i32 @UTF8_getc(ptr noundef %.02636, i32 noundef %.02735, ptr noundef nonnull %6) #8
  %56 = icmp slt i32 %55, 0
  br i1 %56, label %._crit_edge, label %57

57:                                               ; preds = %.lr.ph.split.split
  %58 = load i64, ptr %6, align 8, !tbaa !6
  %59 = call i32 %3(i64 noundef %58, ptr noundef nonnull %4) #8
  %60 = icmp slt i32 %59, 1
  br i1 %60, label %._crit_edge, label %61

61:                                               ; preds = %57
  %62 = zext nneg i32 %55 to i64
  %63 = getelementptr inbounds nuw i8, ptr %.02636, i64 %62
  %64 = sub nsw i32 %.02735, %55
  %.not = icmp eq i32 %64, 0
  br i1 %.not, label %._crit_edge, label %.lr.ph.split.split, !llvm.loop !12

._crit_edge:                                      ; preds = %28, %48, %.lr.ph.split.us42.split, %23, %.lr.ph.split.us.split, %11, %.lr.ph.split.split, %57, %61, %.lr.ph.split.split.us, %51, %.lr.ph.split.us42, %.lr.ph.split.us, %5
  %.0 = phi i32 [ 1, %5 ], [ 1, %.lr.ph.split.us ], [ 1, %.lr.ph.split.us42 ], [ 1, %51 ], [ -1, %.lr.ph.split.split.us ], [ 1, %61 ], [ %59, %57 ], [ -1, %.lr.ph.split.split ], [ 1, %11 ], [ %9, %.lr.ph.split.us.split ], [ 1, %23 ], [ %21, %.lr.ph.split.us42.split ], [ 1, %48 ], [ %46, %28 ]
  call void @llvm.lifetime.end.p0(i64 8, ptr nonnull %6) #8
  ret i32 %.0
}